Archive member included to satisfy reference by file (symbol)

/usr/lib/gcc/avr/5.4.0/avr51/libgcc.a(_udivmodsi4.o)
                              ./Source/internal/src/system.o (__udivmodsi4)
/usr/lib/gcc/avr/5.4.0/avr51/libgcc.a(_exit.o)
                              /usr/lib/gcc/avr/5.4.0/../../../avr/lib/avr51/crtat90can128.o (exit)
/usr/lib/gcc/avr/5.4.0/avr51/libgcc.a(_copy_data.o)
                              ./Source/internal/src/actuator.o (__do_copy_data)
/usr/lib/gcc/avr/5.4.0/avr51/libgcc.a(_clear_bss.o)
                              ./Source/internal/src/actuator.o (__do_clear_bss)
/usr/lib/gcc/avr/5.4.0/../../../avr/lib/avr51/libm.a(addsf3.o)
                              ./Source/internal/src/actuator.o (__subsf3)
/usr/lib/gcc/avr/5.4.0/../../../avr/lib/avr51/libm.a(addsf3x.o)
                              /usr/lib/gcc/avr/5.4.0/../../../avr/lib/avr51/libm.a(addsf3.o) (__addsf3x)
/usr/lib/gcc/avr/5.4.0/../../../avr/lib/avr51/libm.a(cmpsf2.o)
                              ./Source/internal/src/system.o (__ltsf2)
/usr/lib/gcc/avr/5.4.0/../../../avr/lib/avr51/libm.a(divsf3.o)
                              ./Source/internal/src/actuator.o (__divsf3)
/usr/lib/gcc/avr/5.4.0/../../../avr/lib/avr51/libm.a(divsf3x.o)
                              /usr/lib/gcc/avr/5.4.0/../../../avr/lib/avr51/libm.a(divsf3.o) (__divsf3x)
/usr/lib/gcc/avr/5.4.0/../../../avr/lib/avr51/libm.a(fixsfsi.o)
                              ./Source/internal/src/actuator.o (__fixsfsi)
/usr/lib/gcc/avr/5.4.0/../../../avr/lib/avr51/libm.a(fixunssfsi.o)
                              ./Source/internal/src/actuator.o (__fixunssfsi)
/usr/lib/gcc/avr/5.4.0/../../../avr/lib/avr51/libm.a(floatsisf.o)
                              ./Source/internal/src/actuator.o (__floatunsisf)
/usr/lib/gcc/avr/5.4.0/../../../avr/lib/avr51/libm.a(fp_cmp.o)
                              /usr/lib/gcc/avr/5.4.0/../../../avr/lib/avr51/libm.a(cmpsf2.o) (__fp_cmp)
/usr/lib/gcc/avr/5.4.0/../../../avr/lib/avr51/libm.a(fp_inf.o)
                              /usr/lib/gcc/avr/5.4.0/../../../avr/lib/avr51/libm.a(addsf3x.o) (__fp_inf)
/usr/lib/gcc/avr/5.4.0/../../../avr/lib/avr51/libm.a(fp_nan.o)
                              /usr/lib/gcc/avr/5.4.0/../../../avr/lib/avr51/libm.a(addsf3x.o) (__fp_nan)
/usr/lib/gcc/avr/5.4.0/../../../avr/lib/avr51/libm.a(fp_pscA.o)
                              /usr/lib/gcc/avr/5.4.0/../../../avr/lib/avr51/libm.a(addsf3x.o) (__fp_pscA)
/usr/lib/gcc/avr/5.4.0/../../../avr/lib/avr51/libm.a(fp_pscB.o)
                              /usr/lib/gcc/avr/5.4.0/../../../avr/lib/avr51/libm.a(addsf3x.o) (__fp_pscB)
/usr/lib/gcc/avr/5.4.0/../../../avr/lib/avr51/libm.a(fp_round.o)
                              /usr/lib/gcc/avr/5.4.0/../../../avr/lib/avr51/libm.a(addsf3.o) (__fp_round)
/usr/lib/gcc/avr/5.4.0/../../../avr/lib/avr51/libm.a(fp_split3.o)
                              /usr/lib/gcc/avr/5.4.0/../../../avr/lib/avr51/libm.a(addsf3x.o) (__fp_split3)
/usr/lib/gcc/avr/5.4.0/../../../avr/lib/avr51/libm.a(fp_zero.o)
                              /usr/lib/gcc/avr/5.4.0/../../../avr/lib/avr51/libm.a(addsf3x.o) (__fp_zero)
/usr/lib/gcc/avr/5.4.0/../../../avr/lib/avr51/libm.a(gesf2.o)
                              ./Source/internal/src/actuator.o (__gesf2)
/usr/lib/gcc/avr/5.4.0/../../../avr/lib/avr51/libm.a(mulsf3.o)
                              ./Source/internal/src/actuator.o (__mulsf3)
/usr/lib/gcc/avr/5.4.0/../../../avr/lib/avr51/libm.a(mulsf3x.o)
                              /usr/lib/gcc/avr/5.4.0/../../../avr/lib/avr51/libm.a(mulsf3.o) (__mulsf3x)
/usr/lib/gcc/avr/5.4.0/../../../avr/lib/avr51/libc.a(calloc.o)
                              ./Source/internal/src/can.o (calloc)
/usr/lib/gcc/avr/5.4.0/../../../avr/lib/avr51/libc.a(malloc.o)
                              ./Source/internal/src/gpio.o (malloc)
/usr/lib/gcc/avr/5.4.0/../../../avr/lib/avr51/libc.a(memset.o)
                              ./Source/external/src/ax.o (memset)

Allocating common symbols
Common symbol       size              file

__brkval            0x2               /usr/lib/gcc/avr/5.4.0/../../../avr/lib/avr51/libc.a(malloc.o)
odometry_status     0x1               ./darkside.o
data                0x8               ./main.o
__flp               0x2               /usr/lib/gcc/avr/5.4.0/../../../avr/lib/avr51/libc.a(malloc.o)

Memory Configuration

Name             Origin             Length             Attributes
text             0x0000000000000000 0x0000000000020000 xr
data             0x0000000000800100 0x000000000000ff00 rw !x
eeprom           0x0000000000810000 0x0000000000010000 rw !x
fuse             0x0000000000820000 0x0000000000000003 rw !x
lock             0x0000000000830000 0x0000000000000400 rw !x
signature        0x0000000000840000 0x0000000000000400 rw !x
user_signatures  0x0000000000850000 0x0000000000000400 rw !x
*default*        0x0000000000000000 0xffffffffffffffff

Linker script and memory map

Address of section .data set to 0x800100
LOAD /usr/lib/gcc/avr/5.4.0/../../../avr/lib/avr51/crtat90can128.o
LOAD ./Source/internal/src/actuator.o
LOAD ./Source/internal/src/can.o
LOAD ./Source/internal/src/gpio.o
LOAD ./Source/internal/src/sensors.o
LOAD ./Source/internal/src/system.o
LOAD ./Source/internal/src/usart.o
LOAD ./Source/external/src/act.o
LOAD ./Source/external/src/ax.o
LOAD ./Source/external/src/odometry.o
LOAD ./darkside.o
LOAD ./main.o
START GROUP
LOAD /usr/lib/gcc/avr/5.4.0/avr51/libgcc.a
LOAD /usr/lib/gcc/avr/5.4.0/../../../avr/lib/avr51/libm.a
LOAD /usr/lib/gcc/avr/5.4.0/../../../avr/lib/avr51/libc.a
LOAD /usr/lib/gcc/avr/5.4.0/../../../avr/lib/avr51/libat90can128.a
END GROUP
                0x0000000000020000                __TEXT_REGION_LENGTH__ = DEFINED (__TEXT_REGION_LENGTH__)?__TEXT_REGION_LENGTH__:0x20000
                0x000000000000ff00                __DATA_REGION_LENGTH__ = DEFINED (__DATA_REGION_LENGTH__)?__DATA_REGION_LENGTH__:0xff00
                0x0000000000010000                __EEPROM_REGION_LENGTH__ = DEFINED (__EEPROM_REGION_LENGTH__)?__EEPROM_REGION_LENGTH__:0x10000
                [0x0000000000000003]                __FUSE_REGION_LENGTH__ = DEFINED (__FUSE_REGION_LENGTH__)?__FUSE_REGION_LENGTH__:0x400
                0x0000000000000400                __LOCK_REGION_LENGTH__ = DEFINED (__LOCK_REGION_LENGTH__)?__LOCK_REGION_LENGTH__:0x400
                0x0000000000000400                __SIGNATURE_REGION_LENGTH__ = DEFINED (__SIGNATURE_REGION_LENGTH__)?__SIGNATURE_REGION_LENGTH__:0x400
                0x0000000000000400                __USER_SIGNATURE_REGION_LENGTH__ = DEFINED (__USER_SIGNATURE_REGION_LENGTH__)?__USER_SIGNATURE_REGION_LENGTH__:0x400

.hash
 *(.hash)

.dynsym
 *(.dynsym)

.dynstr
 *(.dynstr)

.gnu.version
 *(.gnu.version)

.gnu.version_d
 *(.gnu.version_d)

.gnu.version_r
 *(.gnu.version_r)

.rel.init
 *(.rel.init)

.rela.init
 *(.rela.init)

.rel.text
 *(.rel.text)
 *(.rel.text.*)
 *(.rel.gnu.linkonce.t*)

.rela.text
 *(.rela.text)
 *(.rela.text.*)
 *(.rela.gnu.linkonce.t*)

.rel.fini
 *(.rel.fini)

.rela.fini
 *(.rela.fini)

.rel.rodata
 *(.rel.rodata)
 *(.rel.rodata.*)
 *(.rel.gnu.linkonce.r*)

.rela.rodata
 *(.rela.rodata)
 *(.rela.rodata.*)
 *(.rela.gnu.linkonce.r*)

.rel.data
 *(.rel.data)
 *(.rel.data.*)
 *(.rel.gnu.linkonce.d*)

.rela.data
 *(.rela.data)
 *(.rela.data.*)
 *(.rela.gnu.linkonce.d*)

.rel.ctors
 *(.rel.ctors)

.rela.ctors
 *(.rela.ctors)

.rel.dtors
 *(.rel.dtors)

.rela.dtors
 *(.rela.dtors)

.rel.got
 *(.rel.got)

.rela.got
 *(.rela.got)

.rel.bss
 *(.rel.bss)

.rela.bss
 *(.rela.bss)

.rel.plt
 *(.rel.plt)

.rela.plt
 *(.rela.plt)

.text           0x0000000000000000     0x490c
 *(.vectors)
 .vectors       0x0000000000000000       0x94 /usr/lib/gcc/avr/5.4.0/../../../avr/lib/avr51/crtat90can128.o
                0x0000000000000000                __vectors
                0x0000000000000000                __vector_default
 *(.vectors)
 *(.progmem.gcc*)
                0x0000000000000094                . = ALIGN (0x2)
                0x0000000000000094                __trampolines_start = .
 *(.trampolines)
 .trampolines   0x0000000000000094        0x0 linker stubs
 *(.trampolines*)
                0x0000000000000094                __trampolines_end = .
 *libprintf_flt.a:*(.progmem.data)
 *libc.a:*(.progmem.data)
 *(.progmem*)
                0x0000000000000094                . = ALIGN (0x2)
 *(.jumptables)
 *(.jumptables*)
 *(.lowtext)
 *(.lowtext*)
                0x0000000000000094                __ctors_start = .
 *(.ctors)
                0x0000000000000094                __ctors_end = .
                0x0000000000000094                __dtors_start = .
 *(.dtors)
                0x0000000000000094                __dtors_end = .
 SORT(*)(.ctors)
 SORT(*)(.dtors)
 *(.init0)
 .init0         0x0000000000000094        0x0 /usr/lib/gcc/avr/5.4.0/../../../avr/lib/avr51/crtat90can128.o
                0x0000000000000094                __init
 *(.init0)
 *(.init1)
 *(.init1)
 *(.init2)
 .init2         0x0000000000000094        0xc /usr/lib/gcc/avr/5.4.0/../../../avr/lib/avr51/crtat90can128.o
 *(.init2)
 *(.init3)
 *(.init3)
 *(.init4)
 .init4         0x00000000000000a0       0x1a /usr/lib/gcc/avr/5.4.0/avr51/libgcc.a(_copy_data.o)
                0x00000000000000a0                __do_copy_data
 .init4         0x00000000000000ba       0x10 /usr/lib/gcc/avr/5.4.0/avr51/libgcc.a(_clear_bss.o)
                0x00000000000000ba                __do_clear_bss
 *(.init4)
 *(.init5)
 *(.init5)
 *(.init6)
 *(.init6)
 *(.init7)
 *(.init7)
 *(.init8)
 *(.init8)
 *(.init9)
 .init9         0x00000000000000ca        0x8 /usr/lib/gcc/avr/5.4.0/../../../avr/lib/avr51/crtat90can128.o
 *(.init9)
 *(.text)
 .text          0x00000000000000d2        0x4 /usr/lib/gcc/avr/5.4.0/../../../avr/lib/avr51/crtat90can128.o
                0x00000000000000d2                __vector_22
                0x00000000000000d2                __vector_28
                0x00000000000000d2                __vector_1
                0x00000000000000d2                __vector_24
                0x00000000000000d2                __bad_interrupt
                0x00000000000000d2                __vector_6
                0x00000000000000d2                __vector_31
                0x00000000000000d2                __vector_35
                0x00000000000000d2                __vector_3
                0x00000000000000d2                __vector_30
                0x00000000000000d2                __vector_25
                0x00000000000000d2                __vector_11
                0x00000000000000d2                __vector_13
                0x00000000000000d2                __vector_17
                0x00000000000000d2                __vector_19
                0x00000000000000d2                __vector_7
                0x00000000000000d2                __vector_27
                0x00000000000000d2                __vector_5
                0x00000000000000d2                __vector_33
                0x00000000000000d2                __vector_4
                0x00000000000000d2                __vector_9
                0x00000000000000d2                __vector_2
                0x00000000000000d2                __vector_15
                0x00000000000000d2                __vector_36
                0x00000000000000d2                __vector_29
                0x00000000000000d2                __vector_26
                0x00000000000000d2                __vector_14
                0x00000000000000d2                __vector_10
                0x00000000000000d2                __vector_16
                0x00000000000000d2                __vector_20
 .text          0x00000000000000d6        0x0 ./Source/internal/src/actuator.o
 .text          0x00000000000000d6        0x0 ./Source/internal/src/can.o
 .text          0x00000000000000d6        0x0 ./Source/internal/src/gpio.o
 .text          0x00000000000000d6        0x0 ./Source/internal/src/sensors.o
 .text          0x00000000000000d6        0x0 ./Source/internal/src/system.o
 .text          0x00000000000000d6        0x0 ./Source/internal/src/usart.o
 .text          0x00000000000000d6        0x0 ./Source/external/src/act.o
 .text          0x00000000000000d6        0x0 ./Source/external/src/ax.o
 .text          0x00000000000000d6        0x0 ./Source/external/src/odometry.o
 .text          0x00000000000000d6        0x0 ./darkside.o
 .text          0x00000000000000d6        0x0 ./main.o
 .text          0x00000000000000d6        0x0 /usr/lib/gcc/avr/5.4.0/avr51/libgcc.a(_udivmodsi4.o)
 .text          0x00000000000000d6        0x0 /usr/lib/gcc/avr/5.4.0/avr51/libgcc.a(_exit.o)
 .text          0x00000000000000d6        0x0 /usr/lib/gcc/avr/5.4.0/avr51/libgcc.a(_copy_data.o)
 .text          0x00000000000000d6        0x0 /usr/lib/gcc/avr/5.4.0/avr51/libgcc.a(_clear_bss.o)
 .text          0x00000000000000d6        0x0 /usr/lib/gcc/avr/5.4.0/../../../avr/lib/avr51/libm.a(addsf3.o)
 .text          0x00000000000000d6        0x0 /usr/lib/gcc/avr/5.4.0/../../../avr/lib/avr51/libm.a(addsf3x.o)
 .text          0x00000000000000d6        0x0 /usr/lib/gcc/avr/5.4.0/../../../avr/lib/avr51/libm.a(cmpsf2.o)
 .text          0x00000000000000d6        0x0 /usr/lib/gcc/avr/5.4.0/../../../avr/lib/avr51/libm.a(divsf3.o)
 .text          0x00000000000000d6        0x0 /usr/lib/gcc/avr/5.4.0/../../../avr/lib/avr51/libm.a(divsf3x.o)
 .text          0x00000000000000d6        0x0 /usr/lib/gcc/avr/5.4.0/../../../avr/lib/avr51/libm.a(fixsfsi.o)
 .text          0x00000000000000d6        0x0 /usr/lib/gcc/avr/5.4.0/../../../avr/lib/avr51/libm.a(fixunssfsi.o)
 .text          0x00000000000000d6        0x0 /usr/lib/gcc/avr/5.4.0/../../../avr/lib/avr51/libm.a(floatsisf.o)
 .text          0x00000000000000d6        0x0 /usr/lib/gcc/avr/5.4.0/../../../avr/lib/avr51/libm.a(fp_cmp.o)
 .text          0x00000000000000d6        0x0 /usr/lib/gcc/avr/5.4.0/../../../avr/lib/avr51/libm.a(fp_inf.o)
 .text          0x00000000000000d6        0x0 /usr/lib/gcc/avr/5.4.0/../../../avr/lib/avr51/libm.a(fp_nan.o)
 .text          0x00000000000000d6        0x0 /usr/lib/gcc/avr/5.4.0/../../../avr/lib/avr51/libm.a(fp_pscA.o)
 .text          0x00000000000000d6        0x0 /usr/lib/gcc/avr/5.4.0/../../../avr/lib/avr51/libm.a(fp_pscB.o)
 .text          0x00000000000000d6        0x0 /usr/lib/gcc/avr/5.4.0/../../../avr/lib/avr51/libm.a(fp_round.o)
 .text          0x00000000000000d6        0x0 /usr/lib/gcc/avr/5.4.0/../../../avr/lib/avr51/libm.a(fp_split3.o)
 .text          0x00000000000000d6        0x0 /usr/lib/gcc/avr/5.4.0/../../../avr/lib/avr51/libm.a(fp_zero.o)
 .text          0x00000000000000d6        0x0 /usr/lib/gcc/avr/5.4.0/../../../avr/lib/avr51/libm.a(gesf2.o)
 .text          0x00000000000000d6        0x0 /usr/lib/gcc/avr/5.4.0/../../../avr/lib/avr51/libm.a(mulsf3.o)
 .text          0x00000000000000d6        0x0 /usr/lib/gcc/avr/5.4.0/../../../avr/lib/avr51/libm.a(mulsf3x.o)
 .text          0x00000000000000d6        0x0 /usr/lib/gcc/avr/5.4.0/../../../avr/lib/avr51/libc.a(calloc.o)
 .text          0x00000000000000d6        0x0 /usr/lib/gcc/avr/5.4.0/../../../avr/lib/avr51/libc.a(malloc.o)
 .text          0x00000000000000d6        0x0 /usr/lib/gcc/avr/5.4.0/../../../avr/lib/avr51/libc.a(memset.o)
                0x00000000000000d6                . = ALIGN (0x2)
 *(.text.*)
 .text.servo_init
                0x00000000000000d6       0xfc ./Source/internal/src/actuator.o
                0x00000000000000d6                servo_init
 .text.servo_set_duty_cycle_one
                0x00000000000001d2       0xca ./Source/internal/src/actuator.o
 .text.servo_set_duty_cycle_two
                0x000000000000029c       0xca ./Source/internal/src/actuator.o
 .text.servo_set_duty_cycle_three
                0x0000000000000366       0xca ./Source/internal/src/actuator.o
 .text.range_conv
                0x0000000000000430       0x6e ./Source/internal/src/actuator.o
 .text.check_servo_range
                0x000000000000049e       0x56 ./Source/internal/src/actuator.o
 .text.servo_set_angle_one
                0x00000000000004f4       0x4c ./Source/internal/src/actuator.o
                0x00000000000004f4                servo_set_angle_one
 .text.servo_set_angle_two
                0x0000000000000540       0x4c ./Source/internal/src/actuator.o
                0x0000000000000540                servo_set_angle_two
 .text.servo_set_angle_three
                0x000000000000058c       0x4c ./Source/internal/src/actuator.o
                0x000000000000058c                servo_set_angle_three
 .text.servo_set_angle_four
                0x00000000000005d8       0x80 ./Source/internal/src/actuator.o
                0x00000000000005d8                servo_set_angle_four
 .text.module_init
                0x0000000000000658       0x46 ./Source/internal/src/actuator.o
                0x0000000000000658                module_init
 .text.module_set_relay_status
                0x000000000000069e       0x24 ./Source/internal/src/actuator.o
                0x000000000000069e                module_set_relay_status
 .text.module_read_relay_status
                0x00000000000006c2       0x1a ./Source/internal/src/actuator.o
                0x00000000000006c2                module_read_relay_status
 .text.module_set_mosfet_status
                0x00000000000006dc       0x5e ./Source/internal/src/actuator.o
                0x00000000000006dc                module_set_mosfet_status
 .text.module_read_mosfet_status
                0x000000000000073a       0x3a ./Source/internal/src/actuator.o
                0x000000000000073a                module_read_mosfet_status
 .text.__vector_18
                0x0000000000000774      0x1c6 ./Source/internal/src/can.o
                0x0000000000000774                __vector_18
 .text.CAN_InitModule
                0x000000000000093a       0xf8 ./Source/internal/src/can.o
 .text.CAN_InitRxMob
                0x0000000000000a32      0x106 ./Source/internal/src/can.o
 .text.CAN_Init
                0x0000000000000b38       0x90 ./Source/internal/src/can.o
                0x0000000000000b38                CAN_Init
 .text.CAN_CheckRX
                0x0000000000000bc8       0x24 ./Source/internal/src/can.o
                0x0000000000000bc8                CAN_CheckRX
 .text.CAN_Read
                0x0000000000000bec       0xe0 ./Source/internal/src/can.o
                0x0000000000000bec                CAN_Read
 .text.CAN_Write
                0x0000000000000ccc      0x116 ./Source/internal/src/can.o
                0x0000000000000ccc                CAN_Write
 .text.__list_add
                0x0000000000000de2       0x66 ./Source/internal/src/gpio.o
 .text.list_add
                0x0000000000000e48       0x3c ./Source/internal/src/gpio.o
 .text.gpio_register_pin
                0x0000000000000e84      0x1ce ./Source/internal/src/gpio.o
                0x0000000000000e84                gpio_register_pin
 .text.gpio_write_pin
                0x0000000000001052       0xf6 ./Source/internal/src/gpio.o
                0x0000000000001052                gpio_write_pin
 .text.__gpio_read_pin
                0x0000000000001148       0x62 ./Source/internal/src/gpio.o
 .text.gpio_read_pin
                0x00000000000011aa       0xfa ./Source/internal/src/gpio.o
                0x00000000000011aa                gpio_read_pin
 .text.gpio_debouncer
                0x00000000000012a4       0xa8 ./Source/internal/src/gpio.o
                0x00000000000012a4                gpio_debouncer
 .text.sensor_fr
                0x000000000000134c       0x24 ./Source/internal/src/sensors.o
                0x000000000000134c                sensor_fr
 .text.sensor_fl
                0x0000000000001370       0x24 ./Source/internal/src/sensors.o
                0x0000000000001370                sensor_fl
 .text.sensor_fc
                0x0000000000001394       0x24 ./Source/internal/src/sensors.o
                0x0000000000001394                sensor_fc
 .text.sensor_br
                0x00000000000013b8       0x24 ./Source/internal/src/sensors.o
                0x00000000000013b8                sensor_br
 .text.sensor_bl
                0x00000000000013dc       0x24 ./Source/internal/src/sensors.o
                0x00000000000013dc                sensor_bl
 .text.sensor_bc
                0x0000000000001400       0x24 ./Source/internal/src/sensors.o
                0x0000000000001400                sensor_bc
 .text.sensor_all_front
                0x0000000000001424       0x2c ./Source/internal/src/sensors.o
                0x0000000000001424                sensor_all_front
 .text.sensor_all_back
                0x0000000000001450       0x2c ./Source/internal/src/sensors.o
                0x0000000000001450                sensor_all_back
 .text.timer_register_callback
                0x000000000000147c       0x26 ./Source/internal/src/system.o
                0x000000000000147c                timer_register_callback
 .text.timer_init
                0x00000000000014a2       0xa4 ./Source/internal/src/system.o
                0x00000000000014a2                timer_init
 .text.__vector_12
                0x0000000000001546      0x1fe ./Source/internal/src/system.o
                0x0000000000001546                __vector_12
 .text.system_reset_system_time
                0x0000000000001744       0x20 ./Source/internal/src/system.o
                0x0000000000001744                system_reset_system_time
 .text.system_set_match_started
                0x0000000000001764       0x16 ./Source/internal/src/system.o
                0x0000000000001764                system_set_match_started
 .text.system_get_system_time
                0x000000000000177a       0x22 ./Source/internal/src/system.o
                0x000000000000177a                system_get_system_time
 .text.system_get_match_started
                0x000000000000179c       0x12 ./Source/internal/src/system.o
                0x000000000000179c                system_get_match_started
 .text.__vector_8
                0x00000000000017ae       0x30 ./Source/internal/src/system.o
                0x00000000000017ae                __vector_8
 .text.system_setup_jumper
                0x00000000000017de      0x14e ./Source/internal/src/system.o
 .text.system_wait_for_jumper
                0x000000000000192c      0x118 ./Source/internal/src/system.o
 .text.flip_debug_led
                0x0000000000001a44       0x24 ./Source/internal/src/system.o
                0x0000000000001a44                flip_debug_led
 .text.system_init
                0x0000000000001a68      0x372 ./Source/internal/src/system.o
                0x0000000000001a68                system_init
 .text.UART0_Init
                0x0000000000001dda      0x102 ./Source/internal/src/usart.o
                0x0000000000001dda                UART0_Init
 .text.__vector_23
                0x0000000000001edc       0x86 ./Source/internal/src/usart.o
                0x0000000000001edc                __vector_23
 .text.UART0_Write
                0x0000000000001f62       0x9e ./Source/internal/src/usart.o
                0x0000000000001f62                UART0_Write
 .text.__vector_21
                0x0000000000002000       0x9a ./Source/internal/src/usart.o
                0x0000000000002000                __vector_21
 .text.UART0_Read
                0x000000000000209a       0x8e ./Source/internal/src/usart.o
                0x000000000000209a                UART0_Read
 .text.UART1_Init
                0x0000000000002128      0x102 ./Source/internal/src/usart.o
                0x0000000000002128                UART1_Init
 .text.__vector_34
                0x000000000000222a       0x86 ./Source/internal/src/usart.o
                0x000000000000222a                __vector_34
 .text.__vector_32
                0x00000000000022b0       0x9a ./Source/internal/src/usart.o
                0x00000000000022b0                __vector_32
 .text.altUart0Write
                0x000000000000234a       0x36 ./Source/internal/src/usart.o
                0x000000000000234a                altUart0Write
 .text.altUart1Write
                0x0000000000002380       0x36 ./Source/internal/src/usart.o
                0x0000000000002380                altUart1Write
 .text.UART1_Write
                0x00000000000023b6       0x9e ./Source/internal/src/usart.o
                0x00000000000023b6                UART1_Write
 .text.UART1_Read
                0x0000000000002454       0x8e ./Source/internal/src/usart.o
                0x0000000000002454                UART1_Read
 .text.UART1_Buffer
                0x00000000000024e2       0x3e ./Source/internal/src/usart.o
                0x00000000000024e2                UART1_Buffer
 .text.actuator_ping
                0x0000000000002520      0x13c ./Source/external/src/act.o
                0x0000000000002520                actuator_ping
 .text.actuator_set_status
                0x000000000000265c      0x134 ./Source/external/src/act.o
 .text.actuator_get_status
                0x0000000000002790      0x146 ./Source/external/src/act.o
 .text.actuator_relay_status
                0x00000000000028d6       0x1c ./Source/external/src/act.o
                0x00000000000028d6                actuator_relay_status
 .text.actuator_mosfet_status
                0x00000000000028f2       0x1c ./Source/external/src/act.o
                0x00000000000028f2                actuator_mosfet_status
 .text.actuator_relay_set
                0x000000000000290e       0x24 ./Source/external/src/act.o
                0x000000000000290e                actuator_relay_set
 .text.actuator_mosfet_set
                0x0000000000002932       0x24 ./Source/external/src/act.o
                0x0000000000002932                actuator_mosfet_set
 .text.actuator_get_voltage
                0x0000000000002956      0x146 ./Source/external/src/act.o
                0x0000000000002956                actuator_get_voltage
 .text.ax_send  0x0000000000002a9c      0x160 ./Source/external/src/ax.o
 .text.ax_init  0x0000000000002bfc       0x1e ./Source/external/src/ax.o
                0x0000000000002bfc                ax_init
 .text.ax_board_ping
                0x0000000000002c1a       0x48 ./Source/external/src/ax.o
                0x0000000000002c1a                ax_board_ping
 .text.ax_move  0x0000000000002c62       0xfc ./Source/external/src/ax.o
                0x0000000000002c62                ax_move
 .text.ax_led   0x0000000000002d5e       0x52 ./Source/external/src/ax.o
                0x0000000000002d5e                ax_led
 .text.odometry_set_speed
                0x0000000000002db0      0x13c ./Source/external/src/odometry.o
                0x0000000000002db0                odometry_set_speed
 .text.odometry_query_position
                0x0000000000002eec      0x186 ./Source/external/src/odometry.o
                0x0000000000002eec                odometry_query_position
 .text.odometry_wait_until_done
                0x0000000000003072       0x6e ./Source/external/src/odometry.o
 .text.odometry_stop
                0x00000000000030e0      0x13c ./Source/external/src/odometry.o
                0x00000000000030e0                odometry_stop
 .text.odometry_move_straight
                0x000000000000321c      0x148 ./Source/external/src/odometry.o
                0x000000000000321c                odometry_move_straight
 .text.odometry_move_to_position
                0x0000000000003364      0x17c ./Source/external/src/odometry.o
                0x0000000000003364                odometry_move_to_position
 .text.odometry_set_position
                0x00000000000034e0      0x1b6 ./Source/external/src/odometry.o
                0x00000000000034e0                odometry_set_position
 .text.odometry_rotate_for
                0x0000000000003696      0x146 ./Source/external/src/odometry.o
                0x0000000000003696                odometry_rotate_for
 .text.odometry_set_angle
                0x00000000000037dc      0x146 ./Source/external/src/odometry.o
                0x00000000000037dc                odometry_set_angle
 .text.odometry_kurva
                0x0000000000003922      0x180 ./Source/external/src/odometry.o
                0x0000000000003922                odometry_kurva
 .text.odometry_match_end
                0x0000000000003aa2      0x122 ./Source/external/src/odometry.o
                0x0000000000003aa2                odometry_match_end
 .text.getState
                0x0000000000003bc4       0x16 ./Source/external/src/odometry.o
                0x0000000000003bc4                getState
 .text.odometry_get_x
                0x0000000000003bda       0x1a ./Source/external/src/odometry.o
                0x0000000000003bda                odometry_get_x
 .text.odometry_get_y
                0x0000000000003bf4       0x1a ./Source/external/src/odometry.o
                0x0000000000003bf4                odometry_get_y
 .text.odometry_get_angle
                0x0000000000003c0e       0x1a ./Source/external/src/odometry.o
                0x0000000000003c0e                odometry_get_angle
 .text.wait_while_detection_options
                0x0000000000003c28      0x27c ./darkside.o
 .text.wait_while_detection
                0x0000000000003ea4       0x16 ./darkside.o
 .text.wait_while_detection_withjump
                0x0000000000003eba       0x16 ./darkside.o
 .text.darkside
                0x0000000000003ed0      0x2e2 ./darkside.o
                0x0000000000003ed0                darkside
 .text.main     0x00000000000041b2        0xe ./main.o
                0x00000000000041b2                main
 .text.libgcc.mul
                0x00000000000041c0        0x0 /usr/lib/gcc/avr/5.4.0/avr51/libgcc.a(_udivmodsi4.o)
 .text.libgcc.div
                0x00000000000041c0       0x44 /usr/lib/gcc/avr/5.4.0/avr51/libgcc.a(_udivmodsi4.o)
                0x00000000000041c0                __udivmodsi4
 .text.libgcc   0x0000000000004204        0x0 /usr/lib/gcc/avr/5.4.0/avr51/libgcc.a(_udivmodsi4.o)
 .text.libgcc.prologue
                0x0000000000004204        0x0 /usr/lib/gcc/avr/5.4.0/avr51/libgcc.a(_udivmodsi4.o)
 .text.libgcc.builtins
                0x0000000000004204        0x0 /usr/lib/gcc/avr/5.4.0/avr51/libgcc.a(_udivmodsi4.o)
 .text.libgcc.fmul
                0x0000000000004204        0x0 /usr/lib/gcc/avr/5.4.0/avr51/libgcc.a(_udivmodsi4.o)
 .text.libgcc.fixed
                0x0000000000004204        0x0 /usr/lib/gcc/avr/5.4.0/avr51/libgcc.a(_udivmodsi4.o)
 .text.libgcc.mul
                0x0000000000004204        0x0 /usr/lib/gcc/avr/5.4.0/avr51/libgcc.a(_exit.o)
 .text.libgcc.div
                0x0000000000004204        0x0 /usr/lib/gcc/avr/5.4.0/avr51/libgcc.a(_exit.o)
 .text.libgcc   0x0000000000004204        0x0 /usr/lib/gcc/avr/5.4.0/avr51/libgcc.a(_exit.o)
 .text.libgcc.prologue
                0x0000000000004204        0x0 /usr/lib/gcc/avr/5.4.0/avr51/libgcc.a(_exit.o)
 .text.libgcc.builtins
                0x0000000000004204        0x0 /usr/lib/gcc/avr/5.4.0/avr51/libgcc.a(_exit.o)
 .text.libgcc.fmul
                0x0000000000004204        0x0 /usr/lib/gcc/avr/5.4.0/avr51/libgcc.a(_exit.o)
 .text.libgcc.fixed
                0x0000000000004204        0x0 /usr/lib/gcc/avr/5.4.0/avr51/libgcc.a(_exit.o)
 .text.libgcc.mul
                0x0000000000004204        0x0 /usr/lib/gcc/avr/5.4.0/avr51/libgcc.a(_copy_data.o)
 .text.libgcc.div
                0x0000000000004204        0x0 /usr/lib/gcc/avr/5.4.0/avr51/libgcc.a(_copy_data.o)
 .text.libgcc   0x0000000000004204        0x0 /usr/lib/gcc/avr/5.4.0/avr51/libgcc.a(_copy_data.o)
 .text.libgcc.prologue
                0x0000000000004204        0x0 /usr/lib/gcc/avr/5.4.0/avr51/libgcc.a(_copy_data.o)
 .text.libgcc.builtins
                0x0000000000004204        0x0 /usr/lib/gcc/avr/5.4.0/avr51/libgcc.a(_copy_data.o)
 .text.libgcc.fmul
                0x0000000000004204        0x0 /usr/lib/gcc/avr/5.4.0/avr51/libgcc.a(_copy_data.o)
 .text.libgcc.fixed
                0x0000000000004204        0x0 /usr/lib/gcc/avr/5.4.0/avr51/libgcc.a(_copy_data.o)
 .text.libgcc.mul
                0x0000000000004204        0x0 /usr/lib/gcc/avr/5.4.0/avr51/libgcc.a(_clear_bss.o)
 .text.libgcc.div
                0x0000000000004204        0x0 /usr/lib/gcc/avr/5.4.0/avr51/libgcc.a(_clear_bss.o)
 .text.libgcc   0x0000000000004204        0x0 /usr/lib/gcc/avr/5.4.0/avr51/libgcc.a(_clear_bss.o)
 .text.libgcc.prologue
                0x0000000000004204        0x0 /usr/lib/gcc/avr/5.4.0/avr51/libgcc.a(_clear_bss.o)
 .text.libgcc.builtins
                0x0000000000004204        0x0 /usr/lib/gcc/avr/5.4.0/avr51/libgcc.a(_clear_bss.o)
 .text.libgcc.fmul
                0x0000000000004204        0x0 /usr/lib/gcc/avr/5.4.0/avr51/libgcc.a(_clear_bss.o)
 .text.libgcc.fixed
                0x0000000000004204        0x0 /usr/lib/gcc/avr/5.4.0/avr51/libgcc.a(_clear_bss.o)
 .text.avr-libc.fplib
                0x0000000000004204        0xe /usr/lib/gcc/avr/5.4.0/../../../avr/lib/avr51/libm.a(addsf3.o)
                0x0000000000004204                __subsf3
                0x0000000000004206                __addsf3
 .text.avr-libc.fplib
                0x0000000000004212       0xcc /usr/lib/gcc/avr/5.4.0/../../../avr/lib/avr51/libm.a(addsf3x.o)
                0x0000000000004234                __addsf3x
 .text.avr-libc.fplib
                0x00000000000042de        0xa /usr/lib/gcc/avr/5.4.0/../../../avr/lib/avr51/libm.a(cmpsf2.o)
                0x00000000000042de                __lesf2
                0x00000000000042de                __nesf2
                0x00000000000042de                __eqsf2
                0x00000000000042de                __cmpsf2
                0x00000000000042de                __ltsf2
 .text.avr-libc.fplib
                0x00000000000042e8        0x8 /usr/lib/gcc/avr/5.4.0/../../../avr/lib/avr51/libm.a(divsf3.o)
                0x00000000000042e8                __divsf3
 .text.avr-libc.fplib
                0x00000000000042f0       0xdc /usr/lib/gcc/avr/5.4.0/../../../avr/lib/avr51/libm.a(divsf3x.o)
                0x0000000000004310                __divsf3x
                0x0000000000004316                __divsf3_pse
 .text.avr-libc.fplib
                0x00000000000043cc        0xe /usr/lib/gcc/avr/5.4.0/../../../avr/lib/avr51/libm.a(fixsfsi.o)
                0x00000000000043cc                __fixsfsi
 .text.avr-libc.fplib
                0x00000000000043da       0x5e /usr/lib/gcc/avr/5.4.0/../../../avr/lib/avr51/libm.a(fixunssfsi.o)
                0x00000000000043da                __fixunssfsi
 .text.avr-libc.fplib
                0x0000000000004438       0x7a /usr/lib/gcc/avr/5.4.0/../../../avr/lib/avr51/libm.a(floatsisf.o)
                0x0000000000004438                __floatunsisf
                0x000000000000443c                __floatsisf
 .text.avr-libc.fplib
                0x00000000000044b2       0x48 /usr/lib/gcc/avr/5.4.0/../../../avr/lib/avr51/libm.a(fp_cmp.o)
                0x00000000000044b2                __fp_cmp
 .text.avr-libc.fplib
                0x00000000000044fa        0xc /usr/lib/gcc/avr/5.4.0/../../../avr/lib/avr51/libm.a(fp_inf.o)
                0x00000000000044fa                __fp_inf
 .text.avr-libc.fplib
                0x0000000000004506        0x6 /usr/lib/gcc/avr/5.4.0/../../../avr/lib/avr51/libm.a(fp_nan.o)
                0x0000000000004506                __fp_nan
 .text.avr-libc.fplib
                0x000000000000450c        0xe /usr/lib/gcc/avr/5.4.0/../../../avr/lib/avr51/libm.a(fp_pscA.o)
                0x000000000000450c                __fp_pscA
 .text.avr-libc.fplib
                0x000000000000451a        0xe /usr/lib/gcc/avr/5.4.0/../../../avr/lib/avr51/libm.a(fp_pscB.o)
                0x000000000000451a                __fp_pscB
 .text.avr-libc.fplib
                0x0000000000004528       0x22 /usr/lib/gcc/avr/5.4.0/../../../avr/lib/avr51/libm.a(fp_round.o)
                0x0000000000004528                __fp_round
 .text.avr-libc.fplib
                0x000000000000454a       0x44 /usr/lib/gcc/avr/5.4.0/../../../avr/lib/avr51/libm.a(fp_split3.o)
                0x000000000000454a                __fp_split3
                0x000000000000455a                __fp_splitA
 .text.avr-libc.fplib
                0x000000000000458e        0xe /usr/lib/gcc/avr/5.4.0/../../../avr/lib/avr51/libm.a(fp_zero.o)
                0x000000000000458e                __fp_zero
                0x0000000000004590                __fp_szero
 .text.avr-libc.fplib
                0x000000000000459c        0xa /usr/lib/gcc/avr/5.4.0/../../../avr/lib/avr51/libm.a(gesf2.o)
                0x000000000000459c                __gtsf2
                0x000000000000459c                __gesf2
 .text.avr-libc.fplib
                0x00000000000045a6        0x8 /usr/lib/gcc/avr/5.4.0/../../../avr/lib/avr51/libm.a(mulsf3.o)
                0x00000000000045a6                __mulsf3
 .text.avr-libc.fplib
                0x00000000000045ae       0xd2 /usr/lib/gcc/avr/5.4.0/../../../avr/lib/avr51/libm.a(mulsf3x.o)
                0x00000000000045cc                __mulsf3x
                0x00000000000045d2                __mulsf3_pse
 .text.avr-libc
                0x0000000000004680       0x38 /usr/lib/gcc/avr/5.4.0/../../../avr/lib/avr51/libc.a(calloc.o)
                0x0000000000004680                calloc
 .text.avr-libc
                0x00000000000046b8      0x242 /usr/lib/gcc/avr/5.4.0/../../../avr/lib/avr51/libc.a(malloc.o)
                0x00000000000046b8                malloc
                0x00000000000047e8                free
 .text.avr-libc
                0x00000000000048fa        0xe /usr/lib/gcc/avr/5.4.0/../../../avr/lib/avr51/libc.a(memset.o)
                0x00000000000048fa                memset
                0x0000000000004908                . = ALIGN (0x2)
 *(.fini9)
 .fini9         0x0000000000004908        0x0 /usr/lib/gcc/avr/5.4.0/avr51/libgcc.a(_exit.o)
                0x0000000000004908                exit
                0x0000000000004908                _exit
 *(.fini9)
 *(.fini8)
 *(.fini8)
 *(.fini7)
 *(.fini7)
 *(.fini6)
 *(.fini6)
 *(.fini5)
 *(.fini5)
 *(.fini4)
 *(.fini4)
 *(.fini3)
 *(.fini3)
 *(.fini2)
 *(.fini2)
 *(.fini1)
 *(.fini1)
 *(.fini0)
 .fini0         0x0000000000004908        0x4 /usr/lib/gcc/avr/5.4.0/avr51/libgcc.a(_exit.o)
 *(.fini0)
                0x000000000000490c                _etext = .

.data           0x0000000000800100       0x32 load address 0x000000000000490c
                0x0000000000800100                PROVIDE (__data_start, .)
 *(.data)
 .data          0x0000000000800100        0x0 /usr/lib/gcc/avr/5.4.0/../../../avr/lib/avr51/crtat90can128.o
 .data          0x0000000000800100        0x0 ./Source/internal/src/actuator.o
 .data          0x0000000000800100        0x0 ./Source/internal/src/can.o
 .data          0x0000000000800100        0x0 ./Source/internal/src/gpio.o
 .data          0x0000000000800100        0x0 ./Source/internal/src/sensors.o
 .data          0x0000000000800100        0x0 ./Source/internal/src/system.o
 .data          0x0000000000800100        0x0 ./Source/internal/src/usart.o
 .data          0x0000000000800100        0x0 ./Source/external/src/act.o
 .data          0x0000000000800100        0x0 ./Source/external/src/ax.o
 .data          0x0000000000800100        0x0 ./Source/external/src/odometry.o
 .data          0x0000000000800100        0x0 ./darkside.o
 .data          0x0000000000800100        0x0 ./main.o
 .data          0x0000000000800100        0x0 /usr/lib/gcc/avr/5.4.0/avr51/libgcc.a(_udivmodsi4.o)
 .data          0x0000000000800100        0x0 /usr/lib/gcc/avr/5.4.0/avr51/libgcc.a(_exit.o)
 .data          0x0000000000800100        0x0 /usr/lib/gcc/avr/5.4.0/avr51/libgcc.a(_copy_data.o)
 .data          0x0000000000800100        0x0 /usr/lib/gcc/avr/5.4.0/avr51/libgcc.a(_clear_bss.o)
 .data          0x0000000000800100        0x0 /usr/lib/gcc/avr/5.4.0/../../../avr/lib/avr51/libm.a(addsf3.o)
 .data          0x0000000000800100        0x0 /usr/lib/gcc/avr/5.4.0/../../../avr/lib/avr51/libm.a(addsf3x.o)
 .data          0x0000000000800100        0x0 /usr/lib/gcc/avr/5.4.0/../../../avr/lib/avr51/libm.a(cmpsf2.o)
 .data          0x0000000000800100        0x0 /usr/lib/gcc/avr/5.4.0/../../../avr/lib/avr51/libm.a(divsf3.o)
 .data          0x0000000000800100        0x0 /usr/lib/gcc/avr/5.4.0/../../../avr/lib/avr51/libm.a(divsf3x.o)
 .data          0x0000000000800100        0x0 /usr/lib/gcc/avr/5.4.0/../../../avr/lib/avr51/libm.a(fixsfsi.o)
 .data          0x0000000000800100        0x0 /usr/lib/gcc/avr/5.4.0/../../../avr/lib/avr51/libm.a(fixunssfsi.o)
 .data          0x0000000000800100        0x0 /usr/lib/gcc/avr/5.4.0/../../../avr/lib/avr51/libm.a(floatsisf.o)
 .data          0x0000000000800100        0x0 /usr/lib/gcc/avr/5.4.0/../../../avr/lib/avr51/libm.a(fp_cmp.o)
 .data          0x0000000000800100        0x0 /usr/lib/gcc/avr/5.4.0/../../../avr/lib/avr51/libm.a(fp_inf.o)
 .data          0x0000000000800100        0x0 /usr/lib/gcc/avr/5.4.0/../../../avr/lib/avr51/libm.a(fp_nan.o)
 .data          0x0000000000800100        0x0 /usr/lib/gcc/avr/5.4.0/../../../avr/lib/avr51/libm.a(fp_pscA.o)
 .data          0x0000000000800100        0x0 /usr/lib/gcc/avr/5.4.0/../../../avr/lib/avr51/libm.a(fp_pscB.o)
 .data          0x0000000000800100        0x0 /usr/lib/gcc/avr/5.4.0/../../../avr/lib/avr51/libm.a(fp_round.o)
 .data          0x0000000000800100        0x0 /usr/lib/gcc/avr/5.4.0/../../../avr/lib/avr51/libm.a(fp_split3.o)
 .data          0x0000000000800100        0x0 /usr/lib/gcc/avr/5.4.0/../../../avr/lib/avr51/libm.a(fp_zero.o)
 .data          0x0000000000800100        0x0 /usr/lib/gcc/avr/5.4.0/../../../avr/lib/avr51/libm.a(gesf2.o)
 .data          0x0000000000800100        0x0 /usr/lib/gcc/avr/5.4.0/../../../avr/lib/avr51/libm.a(mulsf3.o)
 .data          0x0000000000800100        0x0 /usr/lib/gcc/avr/5.4.0/../../../avr/lib/avr51/libm.a(mulsf3x.o)
 .data          0x0000000000800100        0x0 /usr/lib/gcc/avr/5.4.0/../../../avr/lib/avr51/libc.a(calloc.o)
 .data          0x0000000000800100        0x6 /usr/lib/gcc/avr/5.4.0/../../../avr/lib/avr51/libc.a(malloc.o)
                0x0000000000800100                __malloc_heap_end
                0x0000000000800102                __malloc_heap_start
                0x0000000000800104                __malloc_margin
 .data          0x0000000000800106        0x0 /usr/lib/gcc/avr/5.4.0/../../../avr/lib/avr51/libc.a(memset.o)
 *(.data*)
 .data.module_mosfet_status
                0x0000000000800106        0x9 ./Source/internal/src/actuator.o
                0x0000000000800106                module_mosfet_status
 .data.gpio_inputs
                0x000000000080010f        0x4 ./Source/internal/src/gpio.o
                0x000000000080010f                gpio_inputs
 .data.position
                0x0000000000800113        0x7 ./Source/external/src/odometry.o
                0x0000000000800113                position
 .data.active_state
                0x000000000080011a        0x1 ./darkside.o
                0x000000000080011a                active_state
 .data.TACTIC_ONE_POSITION
                0x000000000080011b       0x16 ./darkside.o
                0x000000000080011b                TACTIC_ONE_POSITION
 *(.rodata)
 *(.rodata*)
 *(.gnu.linkonce.d*)
                0x0000000000800132                . = ALIGN (0x2)
 *fill*         0x0000000000800131        0x1 
                0x0000000000800132                _edata = .
                0x0000000000800132                PROVIDE (__data_end, .)

.bss            0x0000000000800132      0x15d
                0x0000000000800132                PROVIDE (__bss_start, .)
 *(.bss)
 .bss           0x0000000000800132        0x0 /usr/lib/gcc/avr/5.4.0/../../../avr/lib/avr51/crtat90can128.o
 .bss           0x0000000000800132        0x0 ./Source/internal/src/actuator.o
 .bss           0x0000000000800132        0x0 ./Source/internal/src/can.o
 .bss           0x0000000000800132        0x0 ./Source/internal/src/gpio.o
 .bss           0x0000000000800132        0x0 ./Source/internal/src/sensors.o
 .bss           0x0000000000800132        0x0 ./Source/internal/src/system.o
 .bss           0x0000000000800132        0x0 ./Source/internal/src/usart.o
 .bss           0x0000000000800132        0x0 ./Source/external/src/act.o
 .bss           0x0000000000800132        0x0 ./Source/external/src/ax.o
 .bss           0x0000000000800132        0x0 ./Source/external/src/odometry.o
 .bss           0x0000000000800132        0x0 ./darkside.o
 .bss           0x0000000000800132        0x0 ./main.o
 .bss           0x0000000000800132        0x0 /usr/lib/gcc/avr/5.4.0/avr51/libgcc.a(_udivmodsi4.o)
 .bss           0x0000000000800132        0x0 /usr/lib/gcc/avr/5.4.0/avr51/libgcc.a(_exit.o)
 .bss           0x0000000000800132        0x0 /usr/lib/gcc/avr/5.4.0/avr51/libgcc.a(_copy_data.o)
 .bss           0x0000000000800132        0x0 /usr/lib/gcc/avr/5.4.0/avr51/libgcc.a(_clear_bss.o)
 .bss           0x0000000000800132        0x0 /usr/lib/gcc/avr/5.4.0/../../../avr/lib/avr51/libm.a(addsf3.o)
 .bss           0x0000000000800132        0x0 /usr/lib/gcc/avr/5.4.0/../../../avr/lib/avr51/libm.a(addsf3x.o)
 .bss           0x0000000000800132        0x0 /usr/lib/gcc/avr/5.4.0/../../../avr/lib/avr51/libm.a(cmpsf2.o)
 .bss           0x0000000000800132        0x0 /usr/lib/gcc/avr/5.4.0/../../../avr/lib/avr51/libm.a(divsf3.o)
 .bss           0x0000000000800132        0x0 /usr/lib/gcc/avr/5.4.0/../../../avr/lib/avr51/libm.a(divsf3x.o)
 .bss           0x0000000000800132        0x0 /usr/lib/gcc/avr/5.4.0/../../../avr/lib/avr51/libm.a(fixsfsi.o)
 .bss           0x0000000000800132        0x0 /usr/lib/gcc/avr/5.4.0/../../../avr/lib/avr51/libm.a(fixunssfsi.o)
 .bss           0x0000000000800132        0x0 /usr/lib/gcc/avr/5.4.0/../../../avr/lib/avr51/libm.a(floatsisf.o)
 .bss           0x0000000000800132        0x0 /usr/lib/gcc/avr/5.4.0/../../../avr/lib/avr51/libm.a(fp_cmp.o)
 .bss           0x0000000000800132        0x0 /usr/lib/gcc/avr/5.4.0/../../../avr/lib/avr51/libm.a(fp_inf.o)
 .bss           0x0000000000800132        0x0 /usr/lib/gcc/avr/5.4.0/../../../avr/lib/avr51/libm.a(fp_nan.o)
 .bss           0x0000000000800132        0x0 /usr/lib/gcc/avr/5.4.0/../../../avr/lib/avr51/libm.a(fp_pscA.o)
 .bss           0x0000000000800132        0x0 /usr/lib/gcc/avr/5.4.0/../../../avr/lib/avr51/libm.a(fp_pscB.o)
 .bss           0x0000000000800132        0x0 /usr/lib/gcc/avr/5.4.0/../../../avr/lib/avr51/libm.a(fp_round.o)
 .bss           0x0000000000800132        0x0 /usr/lib/gcc/avr/5.4.0/../../../avr/lib/avr51/libm.a(fp_split3.o)
 .bss           0x0000000000800132        0x0 /usr/lib/gcc/avr/5.4.0/../../../avr/lib/avr51/libm.a(fp_zero.o)
 .bss           0x0000000000800132        0x0 /usr/lib/gcc/avr/5.4.0/../../../avr/lib/avr51/libm.a(gesf2.o)
 .bss           0x0000000000800132        0x0 /usr/lib/gcc/avr/5.4.0/../../../avr/lib/avr51/libm.a(mulsf3.o)
 .bss           0x0000000000800132        0x0 /usr/lib/gcc/avr/5.4.0/../../../avr/lib/avr51/libm.a(mulsf3x.o)
 .bss           0x0000000000800132        0x0 /usr/lib/gcc/avr/5.4.0/../../../avr/lib/avr51/libc.a(calloc.o)
 .bss           0x0000000000800132        0x0 /usr/lib/gcc/avr/5.4.0/../../../avr/lib/avr51/libc.a(malloc.o)
 .bss           0x0000000000800132        0x0 /usr/lib/gcc/avr/5.4.0/../../../avr/lib/avr51/libc.a(memset.o)
 *(.bss*)
 .bss.module_relay_status
                0x0000000000800132        0x1 ./Source/internal/src/actuator.o
                0x0000000000800132                module_relay_status
 .bss.rxBuffers
                0x0000000000800133       0x14 ./Source/internal/src/can.o
 .bss.rxWrIndex
                0x0000000000800147        0xa ./Source/internal/src/can.o
 .bss.rxRdIndex
                0x0000000000800151        0xa ./Source/internal/src/can.o
 .bss.rxCounter
                0x000000000080015b        0xa ./Source/internal/src/can.o
 .bss.count.1896
                0x0000000000800165        0x2 ./Source/internal/src/gpio.o
 .bss.sys_time  0x0000000000800167        0x4 ./Source/internal/src/system.o
 .bss.match_started
                0x000000000080016b        0x1 ./Source/internal/src/system.o
 .bss.timer_callback
                0x000000000080016c        0x2 ./Source/internal/src/system.o
 .bss.received  0x000000000080016e        0x2 ./Source/internal/src/system.o
                0x000000000080016e                received
 .bss.jumper_pulled
                0x0000000000800170        0x1 ./Source/internal/src/system.o
 .bss.setup_complete
                0x0000000000800171        0x1 ./Source/internal/src/system.o
 .bss.tx0_buffer
                0x0000000000800172       0x40 ./Source/internal/src/usart.o
 .bss.tx0_wr_index
                0x00000000008001b2        0x1 ./Source/internal/src/usart.o
 .bss.tx0_counter
                0x00000000008001b3        0x1 ./Source/internal/src/usart.o
 .bss.tx0_rd_index
                0x00000000008001b4        0x1 ./Source/internal/src/usart.o
 .bss.rx0_buffer
                0x00000000008001b5       0x40 ./Source/internal/src/usart.o
 .bss.rx0_wr_index
                0x00000000008001f5        0x1 ./Source/internal/src/usart.o
 .bss.rx0_counter
                0x00000000008001f6        0x1 ./Source/internal/src/usart.o
 .bss.rx0_rd_index
                0x00000000008001f7        0x1 ./Source/internal/src/usart.o
 .bss.tx1_buffer
                0x00000000008001f8       0x40 ./Source/internal/src/usart.o
 .bss.tx1_wr_index
                0x0000000000800238        0x1 ./Source/internal/src/usart.o
 .bss.tx1_counter
                0x0000000000800239        0x1 ./Source/internal/src/usart.o
 .bss.tx1_rd_index
                0x000000000080023a        0x1 ./Source/internal/src/usart.o
 .bss.rx1_buffer
                0x000000000080023b       0x40 ./Source/internal/src/usart.o
 .bss.rx1_wr_index
                0x000000000080027b        0x1 ./Source/internal/src/usart.o
 .bss.rx1_counter
                0x000000000080027c        0x1 ./Source/internal/src/usart.o
 .bss.rx1_rd_index
                0x000000000080027d        0x1 ./Source/internal/src/usart.o
 .bss.current_speed
                0x000000000080027e        0x1 ./Source/external/src/odometry.o
 .bss.current_position
                0x000000000080027f        0x1 ./darkside.o
                0x000000000080027f                current_position
 .bss.next_position
                0x0000000000800280        0x1 ./darkside.o
                0x0000000000800280                next_position
 .bss.backjump_status
                0x0000000000800281        0x1 ./darkside.o
                0x0000000000800281                backjump_status
 *(COMMON)
 COMMON         0x0000000000800282        0x1 ./darkside.o
                0x0000000000800282                odometry_status
 COMMON         0x0000000000800283        0x8 ./main.o
                0x0000000000800283                data
 COMMON         0x000000000080028b        0x4 /usr/lib/gcc/avr/5.4.0/../../../avr/lib/avr51/libc.a(malloc.o)
                0x000000000080028b                __brkval
                0x000000000080028d                __flp
                0x000000000080028f                PROVIDE (__bss_end, .)
                0x000000000000490c                __data_load_start = LOADADDR (.data)
                0x000000000000493e                __data_load_end = (__data_load_start + SIZEOF (.data))

.noinit         0x000000000080028f        0x0
                [!provide]                        PROVIDE (__noinit_start, .)
 *(.noinit*)
                [!provide]                        PROVIDE (__noinit_end, .)
                0x000000000080028f                _end = .
                0x000000000080028f                PROVIDE (__heap_start, .)

.eeprom         0x0000000000810000        0x0
 *(.eeprom*)
                0x0000000000810000                __eeprom_end = .

.fuse
 *(.fuse)
 *(.lfuse)
 *(.hfuse)
 *(.efuse)

.lock
 *(.lock*)

.signature
 *(.signature*)

.user_signatures
 *(.user_signatures*)

.stab           0x0000000000000000     0x6ae0
 *(.stab)
 .stab          0x0000000000000000      0xae0 ./Source/internal/src/actuator.o
 .stab          0x0000000000000ae0      0xac8 ./Source/internal/src/can.o
                                        0xd38 (size before relaxing)
 .stab          0x00000000000015a8      0x99c ./Source/internal/src/gpio.o
                                        0xbd0 (size before relaxing)
 .stab          0x0000000000001f44      0x60c ./Source/internal/src/sensors.o
                                        0x858 (size before relaxing)
 .stab          0x0000000000002550      0xb7c ./Source/internal/src/system.o
                                        0xe04 (size before relaxing)
 .stab          0x00000000000030cc      0xb34 ./Source/internal/src/usart.o
                                        0xcfc (size before relaxing)
 .stab          0x0000000000003c00      0x93c ./Source/external/src/act.o
                                        0xb1c (size before relaxing)
 .stab          0x000000000000453c      0x6d8 ./Source/external/src/ax.o
                                        0x8c4 (size before relaxing)
 .stab          0x0000000000004c14     0x1344 ./Source/external/src/odometry.o
                                       0x1590 (size before relaxing)
 .stab          0x0000000000005f58      0x840 ./darkside.o
                                        0xae0 (size before relaxing)
 .stab          0x0000000000006798      0x348 ./main.o
                                        0x600 (size before relaxing)

.stabstr        0x0000000000000000     0x25bc
 *(.stabstr)
 .stabstr       0x0000000000000000     0x25bc ./Source/internal/src/actuator.o

.stab.excl
 *(.stab.excl)

.stab.exclstr
 *(.stab.exclstr)

.stab.index
 *(.stab.index)

.stab.indexstr
 *(.stab.indexstr)

.comment        0x0000000000000000       0x11
 *(.comment)
 .comment       0x0000000000000000       0x11 ./Source/internal/src/actuator.o
                                         0x12 (size before relaxing)
 .comment       0x0000000000000011       0x12 ./Source/internal/src/can.o
 .comment       0x0000000000000011       0x12 ./Source/internal/src/gpio.o
 .comment       0x0000000000000011       0x12 ./Source/internal/src/sensors.o
 .comment       0x0000000000000011       0x12 ./Source/internal/src/system.o
 .comment       0x0000000000000011       0x12 ./Source/internal/src/usart.o
 .comment       0x0000000000000011       0x12 ./Source/external/src/act.o
 .comment       0x0000000000000011       0x12 ./Source/external/src/ax.o
 .comment       0x0000000000000011       0x12 ./Source/external/src/odometry.o
 .comment       0x0000000000000011       0x12 ./darkside.o
 .comment       0x0000000000000011       0x12 ./main.o
 .comment       0x0000000000000011       0x12 /usr/lib/gcc/avr/5.4.0/../../../avr/lib/avr51/libc.a(calloc.o)
 .comment       0x0000000000000011       0x12 /usr/lib/gcc/avr/5.4.0/../../../avr/lib/avr51/libc.a(malloc.o)

.note.gnu.avr.deviceinfo
                0x0000000000000000       0x40
 .note.gnu.avr.deviceinfo
                0x0000000000000000       0x40 /usr/lib/gcc/avr/5.4.0/../../../avr/lib/avr51/crtat90can128.o

.note.gnu.build-id
 *(.note.gnu.build-id)

.debug
 *(.debug)

.line
 *(.line)

.debug_srcinfo
 *(.debug_srcinfo)

.debug_sfnames
 *(.debug_sfnames)

.debug_aranges
 *(.debug_aranges)

.debug_pubnames
 *(.debug_pubnames)

.debug_info     0x0000000000000000      0xa2d
 *(.debug_info .gnu.linkonce.wi.*)
 .debug_info    0x0000000000000000      0xa2d /usr/lib/gcc/avr/5.4.0/../../../avr/lib/avr51/crtat90can128.o

.debug_abbrev   0x0000000000000000      0x9a0
 *(.debug_abbrev)
 .debug_abbrev  0x0000000000000000      0x9a0 /usr/lib/gcc/avr/5.4.0/../../../avr/lib/avr51/crtat90can128.o

.debug_line     0x0000000000000000       0x1a
 *(.debug_line .debug_line.* .debug_line_end)
 .debug_line    0x0000000000000000       0x1a /usr/lib/gcc/avr/5.4.0/../../../avr/lib/avr51/crtat90can128.o

.debug_frame
 *(.debug_frame)

.debug_str      0x0000000000000000      0x39f
 *(.debug_str)
 .debug_str     0x0000000000000000      0x39f /usr/lib/gcc/avr/5.4.0/../../../avr/lib/avr51/crtat90can128.o

.debug_loc
 *(.debug_loc)

.debug_macinfo
 *(.debug_macinfo)

.debug_weaknames
 *(.debug_weaknames)

.debug_funcnames
 *(.debug_funcnames)

.debug_typenames
 *(.debug_typenames)

.debug_varnames
 *(.debug_varnames)

.debug_pubtypes
 *(.debug_pubtypes)

.debug_ranges
 *(.debug_ranges)

.debug_macro
 *(.debug_macro)
OUTPUT(EP_Framework_Atmel.elf elf32-avr)
LOAD linker stubs
